target datalayout = "e-m:e-p270:32:32-p271:32:32-p272:64:64-i64:64-i128:128-f80:128-n8:16:32:64-S128"
target triple = "x86_64-unknown-linux-gnu"

%struct.TCGOp = type { i32, i32, %union.anon, [2 x i32], [0 x i64] }
%union.anon = type { %struct.QTailQLink }
%struct.QTailQLink = type { ptr, ptr }

@tcg_ctx = external thread_local global ptr, align 8
@.str = private unnamed_addr constant [25 x i8] c"../qemu/tcg/tcg-op-vec.c\00", align 1
@__func__.do_shifts = private unnamed_addr constant [10 x i8] c"do_shifts\00", align 1

; Function Attrs: nounwind sspstrong uwtable
define internal ptr @tcg_swap_vecop_list(ptr noundef %n) #0 {
entry:
  %n.addr = alloca ptr, align 8
  store ptr %n, ptr %n.addr, align 8
  ret ptr null
}

; Function Attrs: nounwind sspstrong uwtable
define dso_local void @vec_gen_3(i32 noundef %opc, i32 noundef %type, i32 noundef %vece, i64 noundef %r, i64 noundef %a, i64 noundef %b) #0 {
entry:
  %opc.addr = alloca i32, align 4
  %type.addr = alloca i32, align 4
  %vece.addr = alloca i32, align 4
  %r.addr = alloca i64, align 8
  %a.addr = alloca i64, align 8
  %b.addr = alloca i64, align 8
  %op = alloca ptr, align 8
  store i32 %opc, ptr %opc.addr, align 4
  store i32 %type, ptr %type.addr, align 4
  store i32 %vece, ptr %vece.addr, align 4
  store i64 %r, ptr %r.addr, align 8
  store i64 %a, ptr %a.addr, align 8
  store i64 %b, ptr %b.addr, align 8
  %0 = load i32, ptr %opc.addr, align 4
  %call = call ptr @tcg_emit_op(i32 noundef %0, i32 noundef 3)
  store ptr %call, ptr %op, align 8
  %1 = load i32, ptr %type.addr, align 4
  %sub = sub i32 %1, 3
  %2 = load ptr, ptr %op, align 8
  %bf.load = load i32, ptr %2, align 8
  %bf.value = and i32 %sub, 255
  %bf.shl = shl i32 %bf.value, 16
  %bf.clear = and i32 %bf.load, -16711681
  %bf.set = or i32 %bf.clear, %bf.shl
  store i32 %bf.set, ptr %2, align 8
  %3 = load i32, ptr %vece.addr, align 4
  %4 = load ptr, ptr %op, align 8
  %bf.load1 = load i32, ptr %4, align 8
  %bf.value2 = and i32 %3, 255
  %bf.shl3 = shl i32 %bf.value2, 24
  %bf.clear4 = and i32 %bf.load1, 16777215
  %bf.set5 = or i32 %bf.clear4, %bf.shl3
  store i32 %bf.set5, ptr %4, align 8
  %5 = load i64, ptr %r.addr, align 8
  %6 = load ptr, ptr %op, align 8
  %args = getelementptr inbounds %struct.TCGOp, ptr %6, i32 0, i32 4
  %arrayidx = getelementptr [0 x i64], ptr %args, i64 0, i64 0
  store i64 %5, ptr %arrayidx, align 8
  %7 = load i64, ptr %a.addr, align 8
  %8 = load ptr, ptr %op, align 8
  %args6 = getelementptr inbounds %struct.TCGOp, ptr %8, i32 0, i32 4
  %arrayidx7 = getelementptr [0 x i64], ptr %args6, i64 0, i64 1
  store i64 %7, ptr %arrayidx7, align 8
  %9 = load i64, ptr %b.addr, align 8
  %10 = load ptr, ptr %op, align 8
  %args8 = getelementptr inbounds %struct.TCGOp, ptr %10, i32 0, i32 4
  %arrayidx9 = getelementptr [0 x i64], ptr %args8, i64 0, i64 2
  store i64 %9, ptr %arrayidx9, align 8
  ret void
}

; Function Attrs: nounwind sspstrong uwtable
define internal void @tcg_assert_listed_vecop(i32 noundef %op) #0 {
entry:
  %op.addr = alloca i32, align 4
  store i32 %op, ptr %op.addr, align 4
  ret void
}

; Function Attrs: nounwind sspstrong uwtable
define internal i64 @temp_arg(ptr noundef %ts) #0 {
entry:
  %ts.addr = alloca ptr, align 8
  store ptr %ts, ptr %ts.addr, align 8
  %0 = load ptr, ptr %ts.addr, align 8
  %1 = ptrtoint ptr %0 to i64
  ret i64 %1
}

; Function Attrs: nounwind sspstrong uwtable
define internal ptr @tcgv_i32_temp(ptr noundef %v) #0 {
entry:
  %v.addr = alloca ptr, align 8
  store ptr %v, ptr %v.addr, align 8
  %0 = call align 8 ptr @llvm.threadlocal.address.p0(ptr align 8 @tcg_ctx)
  %1 = load ptr, ptr %0, align 8
  %2 = load ptr, ptr %v.addr, align 8
  %3 = ptrtoint ptr %2 to i64
  %add.ptr = getelementptr i8, ptr %1, i64 %3
  ret ptr %add.ptr
}

; Function Attrs: nounwind sspstrong uwtable
define internal ptr @tcgv_vec_temp(ptr noundef %v) #0 {
entry:
  %v.addr = alloca ptr, align 8
  store ptr %v, ptr %v.addr, align 8
  %0 = load ptr, ptr %v.addr, align 8
  %call = call ptr @tcgv_i32_temp(ptr noundef %0)
  ret ptr %call
}

; Function Attrs: nounwind sspstrong uwtable
define internal void @do_shifts(i32 noundef %vece, ptr noundef %r, ptr noundef %a, ptr noundef %s, i32 noundef %opc) #0 {
entry:
  %vece.addr = alloca i32, align 4
  %r.addr = alloca ptr, align 8
  %a.addr = alloca ptr, align 8
  %s.addr = alloca ptr, align 8
  %opc.addr = alloca i32, align 4
  %rt = alloca ptr, align 8
  %at = alloca ptr, align 8
  %st = alloca ptr, align 8
  %ri = alloca i64, align 8
  %ai = alloca i64, align 8
  %si = alloca i64, align 8
  %type = alloca i32, align 4
  %can = alloca i32, align 4
  %hold_list = alloca ptr, align 8
  store i32 %vece, ptr %vece.addr, align 4
  store ptr %r, ptr %r.addr, align 8
  store ptr %a, ptr %a.addr, align 8
  store ptr %s, ptr %s.addr, align 8
  store i32 %opc, ptr %opc.addr, align 4
  %0 = load ptr, ptr %r.addr, align 8
  %call = call ptr @tcgv_vec_temp(ptr noundef %0)
  store ptr %call, ptr %rt, align 8
  %1 = load ptr, ptr %a.addr, align 8
  %call1 = call ptr @tcgv_vec_temp(ptr noundef %1)
  store ptr %call1, ptr %at, align 8
  %2 = load ptr, ptr %s.addr, align 8
  %call2 = call ptr @tcgv_i32_temp(ptr noundef %2)
  store ptr %call2, ptr %st, align 8
  %3 = load ptr, ptr %rt, align 8
  %call3 = call i64 @temp_arg(ptr noundef %3)
  store i64 %call3, ptr %ri, align 8
  %4 = load ptr, ptr %at, align 8
  %call4 = call i64 @temp_arg(ptr noundef %4)
  store i64 %call4, ptr %ai, align 8
  %5 = load ptr, ptr %st, align 8
  %call5 = call i64 @temp_arg(ptr noundef %5)
  store i64 %call5, ptr %si, align 8
  %6 = load ptr, ptr %rt, align 8
  %bf.load = load i64, ptr %6, align 8
  %bf.lshr = lshr i64 %bf.load, 16
  %bf.clear = and i64 %bf.lshr, 255
  %bf.cast = trunc i64 %bf.clear to i32
  store i32 %bf.cast, ptr %type, align 4
  br label %do.body

do.body:                                          ; preds = %entry
  %7 = load ptr, ptr %at, align 8
  %bf.load6 = load i64, ptr %7, align 8
  %bf.lshr7 = lshr i64 %bf.load6, 16
  %bf.clear8 = and i64 %bf.lshr7, 255
  %bf.cast9 = trunc i64 %bf.clear8 to i32
  %8 = load i32, ptr %type, align 4
  %cmp = icmp uge i32 %bf.cast9, %8
  br i1 %cmp, label %if.end, label %if.then

if.then:                                          ; preds = %do.body
  unreachable

if.end:                                           ; preds = %do.body
  br label %do.end

do.end:                                           ; preds = %if.end
  %9 = load i32, ptr %opc.addr, align 4
  call void @tcg_assert_listed_vecop(i32 noundef %9)
  %10 = load i32, ptr %opc.addr, align 4
  %11 = load i32, ptr %type, align 4
  %12 = load i32, ptr %vece.addr, align 4
  %call10 = call i32 @tcg_can_emit_vec_op(i32 noundef %10, i32 noundef %11, i32 noundef %12)
  store i32 %call10, ptr %can, align 4
  %13 = load i32, ptr %can, align 4
  %cmp11 = icmp sgt i32 %13, 0
  br i1 %cmp11, label %if.then12, label %if.else

if.then12:                                        ; preds = %do.end
  %14 = load i32, ptr %opc.addr, align 4
  %15 = load i32, ptr %type, align 4
  %16 = load i32, ptr %vece.addr, align 4
  %17 = load i64, ptr %ri, align 8
  %18 = load i64, ptr %ai, align 8
  %19 = load i64, ptr %si, align 8
  call void @vec_gen_3(i32 noundef %14, i32 noundef %15, i32 noundef %16, i64 noundef %17, i64 noundef %18, i64 noundef %19)
  br label %if.end21

if.else:                                          ; preds = %do.end
  %20 = load i32, ptr %can, align 4
  %cmp13 = icmp slt i32 %20, 0
  br i1 %cmp13, label %if.then14, label %if.else17

if.then14:                                        ; preds = %if.else
  %call15 = call ptr @tcg_swap_vecop_list(ptr noundef null)
  store ptr %call15, ptr %hold_list, align 8
  %21 = load i32, ptr %opc.addr, align 4
  %22 = load i32, ptr %type, align 4
  %23 = load i32, ptr %vece.addr, align 4
  %24 = load i64, ptr %ri, align 8
  %25 = load i64, ptr %ai, align 8
  %26 = load i64, ptr %si, align 8
  call void (i32, i32, i32, i64, ...) @tcg_expand_vec_op(i32 noundef %21, i32 noundef %22, i32 noundef %23, i64 noundef %24, i64 noundef %25, i64 noundef %26)
  %27 = load ptr, ptr %hold_list, align 8
  %call16 = call ptr @tcg_swap_vecop_list(ptr noundef %27)
  br label %if.end20

if.else17:                                        ; preds = %if.else
  br label %do.body18

do.body18:                                        ; preds = %if.else17
  call void @g_assertion_message_expr(ptr noundef null, ptr noundef @.str, i32 noundef 699, ptr noundef @__func__.do_shifts, ptr noundef null) #4
  unreachable

do.end19:                                         ; No predecessors!
  br label %if.end20

if.end20:                                         ; preds = %do.end19, %if.then14
  br label %if.end21

if.end21:                                         ; preds = %if.end20, %if.then12
  ret void
}

; Function Attrs: nounwind sspstrong uwtable
define dso_local void @tcg_gen_shls_vec(i32 noundef %vece, ptr noundef %r, ptr noundef %a, ptr noundef %b) #0 {
entry:
  %vece.addr = alloca i32, align 4
  %r.addr = alloca ptr, align 8
  %a.addr = alloca ptr, align 8
  %b.addr = alloca ptr, align 8
  store i32 %vece, ptr %vece.addr, align 4
  store ptr %r, ptr %r.addr, align 8
  store ptr %a, ptr %a.addr, align 8
  store ptr %b, ptr %b.addr, align 8
  %0 = load i32, ptr %vece.addr, align 4
  %1 = load ptr, ptr %r.addr, align 8
  %2 = load ptr, ptr %a.addr, align 8
  %3 = load ptr, ptr %b.addr, align 8
  call void @do_shifts(i32 noundef %0, ptr noundef %1, ptr noundef %2, ptr noundef %3, i32 noundef 181)
  ret void
}